; Function Attrs: null_pointer_is_valid sspstrong uwtable
define internal void @hartip_stats_tree_init(ptr noundef %0) #0 {
  %2 = tail call i32 @stats_tree_create_node(ptr noundef %0, ptr noundef nonnull @.str.383, i32 noundef 0, i32 noundef 0, i1 noundef zeroext true)
  store i32 %2, ptr @st_node_packets, align 4
  %3 = tail call i32 @stats_tree_create_pivot(ptr noundef %0, ptr noundef nonnull @.str.379, i32 noundef %2)
  store i32 %3, ptr @st_node_requests, align 4
  %4 = load i32, ptr @st_node_packets, align 4
  %5 = tail call i32 @stats_tree_create_node(ptr noundef %0, ptr noundef nonnull @.str.380, i32 noundef %4, i32 noundef 0, i1 noundef zeroext true)
  store i32 %5, ptr @st_node_responses, align 4
  %6 = load i32, ptr @st_node_packets, align 4
  %7 = tail call i32 @stats_tree_create_node(ptr noundef %0, ptr noundef nonnull @.str.381, i32 noundef %6, i32 noundef 0, i1 noundef zeroext true)
  store i32 %7, ptr @st_node_publish, align 4
  %8 = load i32, ptr @st_node_packets, align 4
  %9 = tail call i32 @stats_tree_create_node(ptr noundef %0, ptr noundef nonnull @.str.382, i32 noundef %8, i32 noundef 0, i1 noundef zeroext true)
  store i32 %9, ptr @st_node_errors, align 4
  ret void
}